; Function Attrs: mustprogress nofree norecurse nosync nounwind willreturn memory(argmem: write) uwtable
define hidden void @_ZN12ZMajorTracerC2Ev(ptr nocapture noundef nonnull writeonly align 8 dereferenceable(80) %0) unnamed_addr #0 align 2 {
  %2 = getelementptr inbounds i8, ptr %0, i64 8
  store i32 8, ptr %2, align 8
  %3 = getelementptr inbounds i8, ptr %0, i64 12
  store i32 34, ptr %3, align 4
  %4 = getelementptr inbounds i8, ptr %0, i64 16
  tail call void @llvm.memset.p0.i64(ptr noundef nonnull align 8 dereferenceable(64) %4, i8 0, i64 64, i1 false)
  store ptr getelementptr inbounds inrange(-16, 16) (i8, ptr @_ZTV12ZMajorTracer, i64 16), ptr %0, align 8
  ret void
}